target datalayout = "e-m:e-p270:32:32-p271:32:32-p272:64:64-i64:64-i128:128-f80:128-n8:16:32:64-S128"
target triple = "x86_64-pc-linux-gnu"

; Function Attrs: mustprogress nounwind uwtable
define noundef i32 @_ZN2cv3hal7normL1_EPKhS2_i(ptr noundef %0, ptr noundef %1, i32 noundef %2) #5 {
  %4 = alloca ptr, align 8
  %5 = alloca ptr, align 8
  %6 = alloca i32, align 4
  %7 = alloca i32, align 4
  %8 = alloca i32, align 4
  store ptr %0, ptr %4, align 8, !tbaa !9
  store ptr %1, ptr %5, align 8, !tbaa !9
  store i32 %2, ptr %6, align 4, !tbaa !3
  call void @llvm.lifetime.start.p0(i64 4, ptr %7) #15
  store i32 0, ptr %7, align 4, !tbaa !3
  call void @llvm.lifetime.start.p0(i64 4, ptr %8) #15
  store i32 0, ptr %8, align 4, !tbaa !3
  br label %9

9:                                                ; preds = %30, %3
  %10 = load i32, ptr %7, align 4, !tbaa !3
  %11 = load i32, ptr %6, align 4, !tbaa !3
  %12 = icmp slt i32 %10, %11
  br i1 %12, label %13, label %33

13:                                               ; preds = %9
  %14 = load ptr, ptr %4, align 8, !tbaa !9
  %15 = load i32, ptr %7, align 4, !tbaa !3
  %16 = sext i32 %15 to i64
  %17 = getelementptr inbounds i8, ptr %14, i64 %16
  %18 = load i8, ptr %17, align 1, !tbaa !24
  %19 = zext i8 %18 to i32
  %20 = load ptr, ptr %5, align 8, !tbaa !9
  %21 = load i32, ptr %7, align 4, !tbaa !3
  %22 = sext i32 %21 to i64
  %23 = getelementptr inbounds i8, ptr %20, i64 %22
  %24 = load i8, ptr %23, align 1, !tbaa !24
  %25 = zext i8 %24 to i32
  %26 = sub nsw i32 %19, %25
  %27 = call i32 @llvm.abs.i32(i32 %26, i1 true)
  %28 = load i32, ptr %8, align 4, !tbaa !3
  %29 = add nsw i32 %28, %27
  store i32 %29, ptr %8, align 4, !tbaa !3
  br label %30

30:                                               ; preds = %13
  %31 = load i32, ptr %7, align 4, !tbaa !3
  %32 = add nsw i32 %31, 1
  store i32 %32, ptr %7, align 4, !tbaa !3
  br label %9, !llvm.loop !34

33:                                               ; preds = %9
  %34 = load i32, ptr %8, align 4, !tbaa !3
  call void @llvm.lifetime.end.p0(i64 4, ptr %8) #15
  call void @llvm.lifetime.end.p0(i64 4, ptr %7) #15
  ret i32 %34
}