; Function Attrs: mustprogress nofree norecurse nosync nounwind willreturn memory(argmem: read) uwtable
define noundef i32 @_ZN2cv3hal7normL1_EPKhS2_i(ptr noundef readonly captures(none) %0, ptr noundef readonly captures(none) %1, i32 noundef %2) local_unnamed_addr #5 {
  %4 = icmp sgt i32 %2, 0
  br i1 %4, label %.lr.ph.preheader, label %._crit_edge

.lr.ph.preheader:                                 ; preds = %3
  %wide.trip.count = zext nneg i32 %2 to i64
  br label %.lr.ph

.lr.ph:                                           ; preds = %.lr.ph.preheader, %.lr.ph
  %indvars.iv = phi i64 [ 0, %.lr.ph.preheader ], [ %indvars.iv.next, %.lr.ph ]
  %.010 = phi i32 [ 0, %.lr.ph.preheader ], [ %13, %.lr.ph ]
  %5 = getelementptr inbounds nuw i8, ptr %0, i64 %indvars.iv
  %6 = load i8, ptr %5, align 1, !tbaa !12
  %7 = zext i8 %6 to i32
  %8 = getelementptr inbounds nuw i8, ptr %1, i64 %indvars.iv
  %9 = load i8, ptr %8, align 1, !tbaa !12
  %10 = zext i8 %9 to i32
  %11 = sub nsw i32 %7, %10
  %12 = tail call i32 @llvm.abs.i32(i32 %11, i1 true)
  %13 = add nuw nsw i32 %12, %.010
  %indvars.iv.next = add nuw nsw i64 %indvars.iv, 1
  %exitcond.not = icmp eq i64 %indvars.iv.next, %wide.trip.count
  br i1 %exitcond.not, label %._crit_edge, label %.lr.ph, !llvm.loop !87

._crit_edge:                                      ; preds = %.lr.ph, %3
  %.0.lcssa = phi i32 [ 0, %3 ], [ %13, %.lr.ph ]
  ret i32 %.0.lcssa
}